target datalayout = "e-m:e-p270:32:32-p271:32:32-p272:64:64-i64:64-i128:128-f80:128-n8:16:32:64-S128"
target triple = "x86_64-pc-linux-gnu"

%struct.cli_bc_ctx = type { i8, i16, i32, ptr, ptr, i32, i32, ptr, ptr, ptr, i32, i32, i64, ptr, ptr, ptr, %struct.cli_bc_hooks, %struct.cli_exe_info, [64 x i32], [64 x i32], i32, ptr, ptr, i32, i32, i32, i32, ptr, i32, ptr, ptr, i32, i32, i32, i32, i32, i32, ptr, ptr, ptr, ptr, ptr, ptr, ptr, i32, i32, i32, i32, ptr, ptr, ptr, ptr, ptr, i32, i32, i32, i32, ptr, ptr, ptr, ptr, i32, i32, i32, ptr, i32, ptr, i32, i32, ptr, i32 }
%struct.cli_bc_hooks = type { ptr, ptr, ptr, ptr, ptr }
%struct.cli_exe_info = type { ptr, i32, i32, i16, i32, i32, %struct.cli_hashset, i32, i32, i32, i32, i32, i32, i32, i32, i32, %struct.pe_image_file_hdr, %union.anon, [16 x %struct.pe_image_data_dir] }
%struct.cli_hashset = type { ptr, ptr, ptr, i32, i32, i32, i32 }
%struct.pe_image_file_hdr = type { i32, i16, i16, i32, i32, i32, i16, i16 }
%union.anon = type { %struct.pe_image_optional_hdr64 }
%struct.pe_image_optional_hdr64 = type { i16, i8, i8, i32, i32, i32, i32, i32, i64, i32, i32, i16, i16, i16, i16, i16, i16, i32, i32, i32, i32, i16, i16, i64, i64, i64, i64, i32, i32 }
%struct.pe_image_data_dir = type { i32, i32 }

@.str.33 = private unnamed_addr constant [32 x i8] c"bytecode: mpool_create failed!\0A\00", align 1
@.str.34 = private unnamed_addr constant [155 x i8] c"cli_bcapi_malloc(): File or section is too large to scan (%u bytes). For your safety, ClamAV limits how much memory an operation can allocate to %d bytes\0A\00", align 1

; Function Attrs: nounwind uwtable
define ptr @cli_bcapi_malloc(ptr noundef %0, i32 noundef %1) #0 {
  %3 = alloca ptr, align 8
  %4 = alloca ptr, align 8
  %5 = alloca i32, align 4
  %6 = alloca ptr, align 8
  store ptr %0, ptr %4, align 8
  store i32 %1, ptr %5, align 4
  %7 = load ptr, ptr %4, align 8
  %8 = getelementptr inbounds %struct.cli_bc_ctx, ptr %7, i32 0, i32 48
  %9 = load ptr, ptr %8, align 8
  %10 = icmp ne ptr %9, null
  br i1 %10, label %24, label %11

11:                                               ; preds = %2
  %12 = call ptr @mpool_create()
  %13 = load ptr, ptr %4, align 8
  %14 = getelementptr inbounds %struct.cli_bc_ctx, ptr %13, i32 0, i32 48
  store ptr %12, ptr %14, align 8
  %15 = load ptr, ptr %4, align 8
  %16 = getelementptr inbounds %struct.cli_bc_ctx, ptr %15, i32 0, i32 48
  %17 = load ptr, ptr %16, align 8
  %18 = icmp ne ptr %17, null
  br i1 %18, label %23, label %19

19:                                               ; preds = %11
  call void (ptr, ...) @cli_dbgmsg(ptr noundef @.str.33)
  %20 = load ptr, ptr %4, align 8
  %21 = getelementptr inbounds %struct.cli_bc_ctx, ptr %20, i32 0, i32 66
  %22 = load ptr, ptr %21, align 8
  call void @cli_event_error_oom(ptr noundef %22, i32 noundef 0)
  store ptr null, ptr %3, align 8
  br label %49

23:                                               ; preds = %11
  br label %24

24:                                               ; preds = %23, %2
  %25 = load i32, ptr %5, align 4
  %26 = icmp eq i32 0, %25
  br i1 %26, label %30, label %27

27:                                               ; preds = %24
  %28 = load i32, ptr %5, align 4
  %29 = icmp ugt i32 %28, 1073741824
  br i1 %29, label %30, label %32

30:                                               ; preds = %27, %24
  %31 = load i32, ptr %5, align 4
  call void (ptr, ...) @cli_warnmsg(ptr noundef @.str.34, i32 noundef %31, i32 noundef 1073741824)
  store ptr null, ptr %6, align 8
  br label %39

32:                                               ; preds = %27
  %33 = load ptr, ptr %4, align 8
  %34 = getelementptr inbounds %struct.cli_bc_ctx, ptr %33, i32 0, i32 48
  %35 = load ptr, ptr %34, align 8
  %36 = load i32, ptr %5, align 4
  %37 = zext i32 %36 to i64
  %38 = call ptr @mpool_malloc(ptr noundef %35, i64 noundef %37)
  store ptr %38, ptr %6, align 8
  br label %39

39:                                               ; preds = %32, %30
  %40 = load ptr, ptr %6, align 8
  %41 = icmp ne ptr %40, null
  br i1 %41, label %47, label %42

42:                                               ; preds = %39
  %43 = load ptr, ptr %4, align 8
  %44 = getelementptr inbounds %struct.cli_bc_ctx, ptr %43, i32 0, i32 66
  %45 = load ptr, ptr %44, align 8
  %46 = load i32, ptr %5, align 4
  call void @cli_event_error_oom(ptr noundef %45, i32 noundef %46)
  br label %47

47:                                               ; preds = %42, %39
  %48 = load ptr, ptr %6, align 8
  store ptr %48, ptr %3, align 8
  br label %49

49:                                               ; preds = %47, %19
  %50 = load ptr, ptr %3, align 8
  ret ptr %50
}