; Function Attrs: nounwind uwtable
define ptr @cli_bcapi_malloc(ptr nocapture noundef %0, i32 noundef %1) local_unnamed_addr #1 {
  %3 = getelementptr inbounds i8, ptr %0, i64 1192
  %4 = load ptr, ptr %3, align 8
  %.not = icmp eq ptr %4, null
  br i1 %.not, label %5, label %8

5:                                                ; preds = %2
  %6 = tail call ptr @mpool_create() #29
  store ptr %6, ptr %3, align 8
  %.not16 = icmp eq ptr %6, null
  br i1 %.not16, label %7, label %8

7:                                                ; preds = %5
  tail call void (ptr, ...) @cli_dbgmsg(ptr noundef nonnull @.str.33) #29
  br label %.sink.split

8:                                                ; preds = %5, %2
  %9 = phi ptr [ %6, %5 ], [ %4, %2 ]
  %10 = add i32 %1, -1073741825
  %or.cond = icmp ult i32 %10, -1073741824
  br i1 %or.cond, label %.thread, label %11

.thread:                                          ; preds = %8
  tail call void (ptr, ...) @cli_warnmsg(ptr noundef nonnull @.str.34, i32 noundef %1, i32 noundef 1073741824) #29
  br label %.sink.split

11:                                               ; preds = %8
  %12 = zext nneg i32 %1 to i64
  %13 = tail call ptr @mpool_malloc(ptr noundef nonnull %9, i64 noundef %12) #29
  %.not17 = icmp eq ptr %13, null
  br i1 %.not17, label %.sink.split, label %16

.sink.split:                                      ; preds = %11, %.thread, %7
  %.sink21 = phi i32 [ 0, %7 ], [ %1, %.thread ], [ %1, %11 ]
  %14 = getelementptr inbounds i8, ptr %0, i64 1312
  %15 = load ptr, ptr %14, align 8
  tail call void @cli_event_error_oom(ptr noundef %15, i32 noundef %.sink21) #29
  br label %16

16:                                               ; preds = %.sink.split, %11
  %.014 = phi ptr [ %13, %11 ], [ null, %.sink.split ]
  ret ptr %.014
}